target datalayout = "e-m:e-p270:32:32-p271:32:32-p272:64:64-i64:64-i128:128-f80:128-n8:16:32:64-S128"
target triple = "x86_64-pc-linux-gnu"

%struct.timespec = type { i64, i64 }
%struct.conmgr_callbacks_t = type { ptr, ptr }
%union.pthread_mutex_t = type { %struct.__pthread_mutex_s }
%struct.__pthread_mutex_s = type { i32, i32, i32, i32, i32, i16, i16, %struct.__pthread_internal_list }
%struct.__pthread_internal_list = type { ptr, ptr }
%struct.event_signal_t = type { ptr, %union.pthread_cond_t, i32, i32 }
%union.pthread_cond_t = type { %struct.__pthread_cond_s }
%struct.__pthread_cond_s = type { %union.__atomic_wide_counter, %union.__atomic_wide_counter, [2 x i32], [2 x i32], i32, i32, [2 x i32] }
%union.__atomic_wide_counter = type { i64 }
%struct.conmgr_t = type { i32, i32, %struct.timespec, %struct.timespec, %struct.timespec, i32, ptr, ptr, ptr, i8, i8, i64, %struct.timespec, i8, i8, i8, i8, i8, i32, ptr, ptr, %struct.conmgr_callbacks_t, %union.pthread_mutex_t, %struct.anon, %struct.anon.1, %struct.event_signal_t, %struct.event_signal_t, %struct.event_signal_t, %struct.event_signal_t }
%struct.anon = type { i32, ptr, i32, i32, i8, i32 }
%struct.anon.1 = type { i8, i8, %struct.event_signal_t, %struct.event_signal_t }

@.str.6 = private unnamed_addr constant [29 x i8] c"%s: pthread_mutex_lock(): %m\00", align 1
@.str.9 = private unnamed_addr constant [31 x i8] c"%s: pthread_mutex_unlock(): %m\00", align 1
@__func__.conmgr_unquiesce = private unnamed_addr constant [17 x i8] c"conmgr_unquiesce\00", align 1

; Function Attrs: nounwind uwtable
define dso_local void @conmgr_unquiesce(ptr noundef %0) #0 {
  %2 = alloca ptr, align 8
  %3 = alloca i32, align 4
  %4 = alloca i32, align 4
  store ptr %0, ptr %2, align 8
  br label %5

5:                                                ; preds = %1
  call void @llvm.lifetime.start.p0(i64 4, ptr %3) #8
  %6 = call i32 @pthread_mutex_lock(ptr noundef getelementptr inbounds nuw (%struct.conmgr_t, ptr @mgr, i32 0, i32 22)) #8
  store i32 %6, ptr %3, align 4
  %7 = load i32, ptr %3, align 4
  %8 = icmp ne i32 %7, 0
  br i1 %8, label %9, label %12

9:                                                ; preds = %5
  %10 = load i32, ptr %3, align 4
  %11 = call ptr @__errno_location() #9
  store i32 %10, ptr %11, align 4
  call void (ptr, ...) @fatal_abort(ptr noundef @.str.6, ptr noundef @__func__.conmgr_unquiesce) #10
  unreachable

12:                                               ; preds = %5
  call void @llvm.lifetime.end.p0(i64 4, ptr %3) #8
  br label %13

13:                                               ; preds = %12
  store i8 0, ptr getelementptr inbounds nuw (%struct.conmgr_t, ptr @mgr, i32 0, i32 24), align 8
  store i8 0, ptr getelementptr inbounds nuw (%struct.anon.1, ptr getelementptr inbounds nuw (%struct.conmgr_t, ptr @mgr, i32 0, i32 24), i32 0, i32 1), align 1
  call void @event_signal_now(i1 noundef zeroext true, ptr noundef getelementptr inbounds nuw (%struct.anon.1, ptr getelementptr inbounds nuw (%struct.conmgr_t, ptr @mgr, i32 0, i32 24), i32 0, i32 3), ptr noundef @__func__.conmgr_unquiesce)
  br label %14

14:                                               ; preds = %13
  call void @llvm.lifetime.start.p0(i64 4, ptr %4) #8
  %15 = call i32 @pthread_mutex_unlock(ptr noundef getelementptr inbounds nuw (%struct.conmgr_t, ptr @mgr, i32 0, i32 22)) #8
  store i32 %15, ptr %4, align 4
  %16 = load i32, ptr %4, align 4
  %17 = icmp ne i32 %16, 0
  br i1 %17, label %18, label %21

18:                                               ; preds = %14
  %19 = load i32, ptr %4, align 4
  %20 = call ptr @__errno_location() #9
  store i32 %19, ptr %20, align 4
  call void (ptr, ...) @fatal_abort(ptr noundef @.str.9, ptr noundef @__func__.conmgr_unquiesce) #10
  unreachable

21:                                               ; preds = %14
  call void @llvm.lifetime.end.p0(i64 4, ptr %4) #8
  br label %22

22:                                               ; preds = %21
  ret void
}