; Function Attrs: nounwind uwtable
define dso_local void @conmgr_unquiesce(ptr noundef readnone captures(none) %0) local_unnamed_addr #0 {
  %2 = tail call i32 @pthread_mutex_lock(ptr noundef nonnull getelementptr inbounds nuw (i8, ptr @mgr, i64 168)) #11
  %.not = icmp eq i32 %2, 0
  br i1 %.not, label %5, label %3

3:                                                ; preds = %1
  %4 = tail call ptr @__errno_location() #12
  store i32 %2, ptr %4, align 4
  tail call void (ptr, ...) @fatal_abort(ptr noundef nonnull @.str.6, ptr noundef nonnull @__func__.conmgr_unquiesce) #13
  unreachable

5:                                                ; preds = %1
  store i8 0, ptr getelementptr inbounds nuw (i8, ptr @mgr, i64 240), align 8
  store i8 0, ptr getelementptr inbounds nuw (i8, ptr @mgr, i64 241), align 1
  tail call void @event_signal_now(i1 noundef zeroext true, ptr noundef nonnull getelementptr inbounds nuw (i8, ptr @mgr, i64 312), ptr noundef nonnull @__func__.conmgr_unquiesce) #11
  %6 = tail call i32 @pthread_mutex_unlock(ptr noundef nonnull getelementptr inbounds nuw (i8, ptr @mgr, i64 168)) #11
  %.not5 = icmp eq i32 %6, 0
  br i1 %.not5, label %9, label %7

7:                                                ; preds = %5
  %8 = tail call ptr @__errno_location() #12
  store i32 %6, ptr %8, align 4
  tail call void (ptr, ...) @fatal_abort(ptr noundef nonnull @.str.9, ptr noundef nonnull @__func__.conmgr_unquiesce) #13
  unreachable

9:                                                ; preds = %5
  ret void
}